target datalayout = "e-m:e-p270:32:32-p271:32:32-p272:64:64-i64:64-i128:128-f80:128-n8:16:32:64-S128"
target triple = "x86_64-pc-linux-gnu"

%struct.libraw_tiff_tag = type { i16, i16, i32, %union.anon }
%union.anon = type { i32 }

; Function Attrs: mustprogress uwtable
define void @_ZN6LibRaw8tiff_setEP8tiff_hdrPtttii(ptr noundef nonnull align 8 dereferenceable(767680) %0, ptr noundef %1, ptr noundef %2, i16 noundef zeroext %3, i16 noundef zeroext %4, i32 noundef %5, i32 noundef %6) #1 align 2 {
  %8 = alloca ptr, align 8
  %9 = alloca ptr, align 8
  %10 = alloca ptr, align 8
  %11 = alloca i16, align 2
  %12 = alloca i16, align 2
  %13 = alloca i32, align 4
  %14 = alloca i32, align 4
  %15 = alloca ptr, align 8
  %16 = alloca i32, align 4
  store ptr %0, ptr %8, align 8, !tbaa !6
  store ptr %1, ptr %9, align 8, !tbaa !76
  store ptr %2, ptr %10, align 8, !tbaa !78
  store i16 %3, ptr %11, align 2, !tbaa !79
  store i16 %4, ptr %12, align 2, !tbaa !79
  store i32 %5, ptr %13, align 4, !tbaa !11
  store i32 %6, ptr %14, align 4, !tbaa !11
  call void @llvm.lifetime.start.p0(i64 8, ptr %15) #15
  call void @llvm.lifetime.start.p0(i64 4, ptr %16) #15
  %17 = load ptr, ptr %10, align 8, !tbaa !78
  %18 = getelementptr inbounds i16, ptr %17, i64 1
  %19 = load ptr, ptr %10, align 8, !tbaa !78
  %20 = load i16, ptr %19, align 2, !tbaa !79
  %21 = add i16 %20, 1
  store i16 %21, ptr %19, align 2, !tbaa !79
  %22 = zext i16 %20 to i32
  %23 = sext i32 %22 to i64
  %24 = getelementptr inbounds %struct.libraw_tiff_tag, ptr %18, i64 %23
  store ptr %24, ptr %15, align 8, !tbaa !80
  %25 = load i32, ptr %14, align 4, !tbaa !11
  %26 = load ptr, ptr %15, align 8, !tbaa !80
  %27 = getelementptr inbounds nuw %struct.libraw_tiff_tag, ptr %26, i32 0, i32 3
  store i32 %25, ptr %27, align 4, !tbaa !82
  %28 = load i16, ptr %12, align 2, !tbaa !79
  %29 = zext i16 %28 to i32
  %30 = icmp eq i32 %29, 1
  br i1 %30, label %31, label %53

31:                                               ; preds = %7
  %32 = load i32, ptr %13, align 4, !tbaa !11
  %33 = icmp sle i32 %32, 4
  br i1 %33, label %34, label %53

34:                                               ; preds = %31
  store i32 0, ptr %16, align 4, !tbaa !11
  br label %35

35:                                               ; preds = %49, %34
  %36 = load i32, ptr %16, align 4, !tbaa !11
  %37 = icmp slt i32 %36, 4
  br i1 %37, label %38, label %52

38:                                               ; preds = %35
  %39 = load i32, ptr %14, align 4, !tbaa !11
  %40 = load i32, ptr %16, align 4, !tbaa !11
  %41 = shl i32 %40, 3
  %42 = ashr i32 %39, %41
  %43 = trunc i32 %42 to i8
  %44 = load ptr, ptr %15, align 8, !tbaa !80
  %45 = getelementptr inbounds nuw %struct.libraw_tiff_tag, ptr %44, i32 0, i32 3
  %46 = load i32, ptr %16, align 4, !tbaa !11
  %47 = sext i32 %46 to i64
  %48 = getelementptr inbounds [4 x i8], ptr %45, i64 0, i64 %47
  store i8 %43, ptr %48, align 1, !tbaa !82
  br label %49

49:                                               ; preds = %38
  %50 = load i32, ptr %16, align 4, !tbaa !11
  %51 = add nsw i32 %50, 1
  store i32 %51, ptr %16, align 4, !tbaa !11
  br label %35, !llvm.loop !83

52:                                               ; preds = %35
  br label %120

53:                                               ; preds = %31, %7
  %54 = load i16, ptr %12, align 2, !tbaa !79
  %55 = zext i16 %54 to i32
  %56 = icmp eq i32 %55, 2
  br i1 %56, label %57, label %92

57:                                               ; preds = %53
  %58 = load ptr, ptr %9, align 8, !tbaa !76
  %59 = load i32, ptr %14, align 4, !tbaa !11
  %60 = sext i32 %59 to i64
  %61 = getelementptr inbounds i8, ptr %58, i64 %60
  %62 = load i32, ptr %13, align 4, !tbaa !11
  %63 = sub nsw i32 %62, 1
  %64 = sext i32 %63 to i64
  %65 = call noundef i64 @_ZN6LibRaw7strnlenEPKcm(ptr noundef %61, i64 noundef %64)
  %66 = trunc i64 %65 to i32
  %67 = add nsw i32 %66, 1
  store i32 %67, ptr %13, align 4, !tbaa !11
  %68 = load i32, ptr %13, align 4, !tbaa !11
  %69 = icmp sle i32 %68, 4
  br i1 %69, label %70, label %91

70:                                               ; preds = %57
  store i32 0, ptr %16, align 4, !tbaa !11
  br label %71

71:                                               ; preds = %87, %70
  %72 = load i32, ptr %16, align 4, !tbaa !11
  %73 = icmp slt i32 %72, 4
  br i1 %73, label %74, label %90

74:                                               ; preds = %71
  %75 = load ptr, ptr %9, align 8, !tbaa !76
  %76 = load i32, ptr %14, align 4, !tbaa !11
  %77 = load i32, ptr %16, align 4, !tbaa !11
  %78 = add nsw i32 %76, %77
  %79 = sext i32 %78 to i64
  %80 = getelementptr inbounds i8, ptr %75, i64 %79
  %81 = load i8, ptr %80, align 1, !tbaa !82
  %82 = load ptr, ptr %15, align 8, !tbaa !80
  %83 = getelementptr inbounds nuw %struct.libraw_tiff_tag, ptr %82, i32 0, i32 3
  %84 = load i32, ptr %16, align 4, !tbaa !11
  %85 = sext i32 %84 to i64
  %86 = getelementptr inbounds [4 x i8], ptr %83, i64 0, i64 %85
  store i8 %81, ptr %86, align 1, !tbaa !82
  br label %87

87:                                               ; preds = %74
  %88 = load i32, ptr %16, align 4, !tbaa !11
  %89 = add nsw i32 %88, 1
  store i32 %89, ptr %16, align 4, !tbaa !11
  br label %71, !llvm.loop !85

90:                                               ; preds = %71
  br label %91

91:                                               ; preds = %90, %57
  br label %119

92:                                               ; preds = %53
  %93 = load i16, ptr %12, align 2, !tbaa !79
  %94 = zext i16 %93 to i32
  %95 = icmp eq i32 %94, 3
  br i1 %95, label %96, label %118

96:                                               ; preds = %92
  %97 = load i32, ptr %13, align 4, !tbaa !11
  %98 = icmp sle i32 %97, 2
  br i1 %98, label %99, label %118

99:                                               ; preds = %96
  store i32 0, ptr %16, align 4, !tbaa !11
  br label %100

100:                                              ; preds = %114, %99
  %101 = load i32, ptr %16, align 4, !tbaa !11
  %102 = icmp slt i32 %101, 2
  br i1 %102, label %103, label %117

103:                                              ; preds = %100
  %104 = load i32, ptr %14, align 4, !tbaa !11
  %105 = load i32, ptr %16, align 4, !tbaa !11
  %106 = shl i32 %105, 4
  %107 = ashr i32 %104, %106
  %108 = trunc i32 %107 to i16
  %109 = load ptr, ptr %15, align 8, !tbaa !80
  %110 = getelementptr inbounds nuw %struct.libraw_tiff_tag, ptr %109, i32 0, i32 3
  %111 = load i32, ptr %16, align 4, !tbaa !11
  %112 = sext i32 %111 to i64
  %113 = getelementptr inbounds [2 x i16], ptr %110, i64 0, i64 %112
  store i16 %108, ptr %113, align 2, !tbaa !82
  br label %114

114:                                              ; preds = %103
  %115 = load i32, ptr %16, align 4, !tbaa !11
  %116 = add nsw i32 %115, 1
  store i32 %116, ptr %16, align 4, !tbaa !11
  br label %100, !llvm.loop !86

117:                                              ; preds = %100
  br label %118

118:                                              ; preds = %117, %96, %92
  br label %119

119:                                              ; preds = %118, %91
  br label %120

120:                                              ; preds = %119, %52
  %121 = load i32, ptr %13, align 4, !tbaa !11
  %122 = load ptr, ptr %15, align 8, !tbaa !80
  %123 = getelementptr inbounds nuw %struct.libraw_tiff_tag, ptr %122, i32 0, i32 2
  store i32 %121, ptr %123, align 4, !tbaa !87
  %124 = load i16, ptr %12, align 2, !tbaa !79
  %125 = load ptr, ptr %15, align 8, !tbaa !80
  %126 = getelementptr inbounds nuw %struct.libraw_tiff_tag, ptr %125, i32 0, i32 1
  store i16 %124, ptr %126, align 2, !tbaa !89
  %127 = load i16, ptr %11, align 2, !tbaa !79
  %128 = load ptr, ptr %15, align 8, !tbaa !80
  %129 = getelementptr inbounds nuw %struct.libraw_tiff_tag, ptr %128, i32 0, i32 0
  store i16 %127, ptr %129, align 4, !tbaa !90
  call void @llvm.lifetime.end.p0(i64 4, ptr %16) #15
  call void @llvm.lifetime.end.p0(i64 8, ptr %15) #15
  ret void
}