; Function Attrs: mustprogress uwtable
define void @_ZN6LibRaw8tiff_setEP8tiff_hdrPtttii(ptr noundef nonnull readnone align 8 captures(none) dereferenceable(767680) %0, ptr noundef %1, ptr noundef captures(none) %2, i16 noundef zeroext %3, i16 noundef zeroext %4, i32 noundef %5, i32 noundef %6) local_unnamed_addr #1 align 2 {
  %8 = getelementptr inbounds nuw i8, ptr %2, i64 2
  %9 = load i16, ptr %2, align 2, !tbaa !71
  %10 = add i16 %9, 1
  store i16 %10, ptr %2, align 2, !tbaa !71
  %11 = zext i16 %9 to i64
  %12 = getelementptr inbounds nuw %struct.libraw_tiff_tag, ptr %8, i64 %11
  %13 = getelementptr inbounds nuw i8, ptr %12, i64 8
  store i32 %6, ptr %13, align 4, !tbaa !72
  %14 = icmp eq i16 %4, 1
  %15 = icmp slt i32 %5, 5
  %or.cond = and i1 %14, %15
  br i1 %or.cond, label %.preheader, label %20

.preheader:                                       ; preds = %7, %.preheader
  %indvars.iv59 = phi i64 [ %indvars.iv.next60, %.preheader ], [ 0, %7 ]
  %indvars.iv59.tr = trunc i64 %indvars.iv59 to i32
  %16 = shl i32 %indvars.iv59.tr, 3
  %17 = ashr i32 %6, %16
  %18 = trunc i32 %17 to i8
  %19 = getelementptr inbounds nuw [4 x i8], ptr %13, i64 0, i64 %indvars.iv59
  store i8 %18, ptr %19, align 1, !tbaa !72
  %indvars.iv.next60 = add nuw nsw i64 %indvars.iv59, 1
  %exitcond62.not = icmp eq i64 %indvars.iv.next60, 4
  br i1 %exitcond62.not, label %.loopexit, label %.preheader, !llvm.loop !73

20:                                               ; preds = %7
  %21 = icmp eq i16 %4, 2
  br i1 %21, label %22, label %33

22:                                               ; preds = %20
  %23 = sext i32 %6 to i64
  %24 = getelementptr inbounds i8, ptr %1, i64 %23
  %25 = add nsw i32 %5, -1
  %26 = sext i32 %25 to i64
  %27 = tail call noundef i64 @_ZN6LibRaw7strnlenEPKcm(ptr noundef %24, i64 noundef %26)
  %28 = trunc i64 %27 to i32
  %29 = add nsw i32 %28, 1
  %30 = icmp slt i32 %28, 4
  br i1 %30, label %.preheader46.preheader, label %.loopexit

.preheader46.preheader:                           ; preds = %22
  %invariant.gep = getelementptr i8, ptr %1, i64 %23
  br label %.preheader46

.preheader46:                                     ; preds = %.preheader46.preheader, %.preheader46
  %indvars.iv56 = phi i64 [ 0, %.preheader46.preheader ], [ %indvars.iv.next57, %.preheader46 ]
  %gep = getelementptr i8, ptr %invariant.gep, i64 %indvars.iv56
  %31 = load i8, ptr %gep, align 1, !tbaa !72
  %32 = getelementptr inbounds nuw [4 x i8], ptr %13, i64 0, i64 %indvars.iv56
  store i8 %31, ptr %32, align 1, !tbaa !72
  %indvars.iv.next57 = add nuw nsw i64 %indvars.iv56, 1
  %exitcond.not = icmp eq i64 %indvars.iv.next57, 4
  br i1 %exitcond.not, label %.loopexit, label %.preheader46, !llvm.loop !75

33:                                               ; preds = %20
  %34 = icmp eq i16 %4, 3
  %35 = icmp slt i32 %5, 3
  %or.cond3 = and i1 %34, %35
  br i1 %or.cond3, label %.preheader48, label %.loopexit

.preheader48:                                     ; preds = %33
  %36 = trunc i32 %6 to i16
  store i16 %36, ptr %13, align 2, !tbaa !72
  %37 = lshr i32 %6, 16
  %38 = trunc nuw i32 %37 to i16
  %39 = getelementptr inbounds nuw i8, ptr %12, i64 10
  store i16 %38, ptr %39, align 2, !tbaa !72
  br label %.loopexit

.loopexit:                                        ; preds = %.preheader46, %.preheader, %.preheader48, %22, %33
  %.040 = phi i32 [ %29, %22 ], [ %5, %33 ], [ %5, %.preheader48 ], [ %5, %.preheader ], [ %29, %.preheader46 ]
  %40 = getelementptr inbounds nuw i8, ptr %12, i64 4
  store i32 %.040, ptr %40, align 4, !tbaa !76
  %41 = getelementptr inbounds nuw i8, ptr %12, i64 2
  store i16 %4, ptr %41, align 2, !tbaa !78
  store i16 %3, ptr %12, align 4, !tbaa !79
  ret void
}